target datalayout = "e-m:e-p270:32:32-p271:32:32-p272:64:64-i64:64-i128:128-f80:128-n8:16:32:64-S128"
target triple = "x86_64-pc-linux-gnu"

%struct._GArray = type { ptr, i32 }

@pcap_file_type_subtype = hidden global i32 -1, align 4
@pcapng_file_type_subtype = hidden global i32 -1, align 4
@file_type_subtype_table_arr = internal global ptr null, align 8

; Function Attrs: null_pointer_is_valid sspstrong uwtable
define ptr @wtap_get_savable_file_types_subtypes_for_file(i32 noundef %0, ptr noundef %1, i32 noundef %2, i32 noundef %3) #0 {
  %5 = alloca ptr, align 8
  %6 = alloca i32, align 4
  %7 = alloca ptr, align 8
  %8 = alloca i32, align 4
  %9 = alloca i32, align 4
  %10 = alloca ptr, align 8
  %11 = alloca i32, align 4
  %12 = alloca i32, align 4
  %13 = alloca i32, align 4
  %14 = alloca i32, align 4
  store i32 %0, ptr %6, align 4
  store ptr %1, ptr %7, align 8
  store i32 %2, ptr %8, align 4
  store i32 %3, ptr %9, align 4
  call void @llvm.lifetime.start.p0(i64 8, ptr %10) #12
  call void @llvm.lifetime.start.p0(i64 4, ptr %11) #12
  call void @llvm.lifetime.start.p0(i64 4, ptr %12) #12
  store i32 -1, ptr %12, align 4
  call void @llvm.lifetime.start.p0(i64 4, ptr %13) #12
  store i32 -1, ptr %13, align 4
  %15 = load i32, ptr %6, align 4
  %16 = load ptr, ptr %7, align 8
  %17 = load i32, ptr %8, align 4
  %18 = call zeroext i1 @wtap_dump_can_write_format(i32 noundef %15, ptr noundef %16, i32 noundef %17)
  br i1 %18, label %19, label %21

19:                                               ; preds = %4
  %20 = load i32, ptr %6, align 4
  store i32 %20, ptr %12, align 4
  br label %56

21:                                               ; preds = %4
  %22 = load i32, ptr @pcap_file_type_subtype, align 4
  %23 = load ptr, ptr %7, align 8
  %24 = load i32, ptr %8, align 4
  %25 = call zeroext i1 @wtap_dump_can_write_format(i32 noundef %22, ptr noundef %23, i32 noundef %24)
  br i1 %25, label %26, label %28

26:                                               ; preds = %21
  %27 = load i32, ptr @pcap_file_type_subtype, align 4
  store i32 %27, ptr %12, align 4
  br label %55

28:                                               ; preds = %21
  %29 = load i32, ptr @pcapng_file_type_subtype, align 4
  %30 = load ptr, ptr %7, align 8
  %31 = load i32, ptr %8, align 4
  %32 = call zeroext i1 @wtap_dump_can_write_format(i32 noundef %29, ptr noundef %30, i32 noundef %31)
  br i1 %32, label %33, label %35

33:                                               ; preds = %28
  %34 = load i32, ptr @pcapng_file_type_subtype, align 4
  store i32 %34, ptr %12, align 4
  br label %54

35:                                               ; preds = %28
  store i32 -1, ptr %12, align 4
  store i32 0, ptr %11, align 4
  br label %36

36:                                               ; preds = %50, %35
  %37 = load i32, ptr %11, align 4
  %38 = load ptr, ptr @file_type_subtype_table_arr, align 8
  %39 = getelementptr inbounds nuw %struct._GArray, ptr %38, i32 0, i32 1
  %40 = load i32, ptr %39, align 8
  %41 = icmp slt i32 %37, %40
  br i1 %41, label %42, label %53

42:                                               ; preds = %36
  %43 = load i32, ptr %11, align 4
  %44 = load ptr, ptr %7, align 8
  %45 = load i32, ptr %8, align 4
  %46 = call zeroext i1 @wtap_dump_can_write_format(i32 noundef %43, ptr noundef %44, i32 noundef %45)
  br i1 %46, label %47, label %49

47:                                               ; preds = %42
  %48 = load i32, ptr %11, align 4
  store i32 %48, ptr %12, align 4
  br label %53

49:                                               ; preds = %42
  br label %50

50:                                               ; preds = %49
  %51 = load i32, ptr %11, align 4
  %52 = add i32 %51, 1
  store i32 %52, ptr %11, align 4
  br label %36, !llvm.loop !24

53:                                               ; preds = %47, %36
  br label %54

54:                                               ; preds = %53, %33
  br label %55

55:                                               ; preds = %54, %26
  br label %56

56:                                               ; preds = %55, %19
  %57 = load i32, ptr %12, align 4
  %58 = icmp eq i32 %57, -1
  br i1 %58, label %59, label %60

59:                                               ; preds = %56
  store ptr null, ptr %5, align 8
  store i32 1, ptr %14, align 4
  br label %128

60:                                               ; preds = %56
  %61 = load i32, ptr %12, align 4
  %62 = load i32, ptr @pcap_file_type_subtype, align 4
  %63 = icmp eq i32 %61, %62
  br i1 %63, label %64, label %72

64:                                               ; preds = %60
  %65 = load i32, ptr @pcapng_file_type_subtype, align 4
  %66 = load ptr, ptr %7, align 8
  %67 = load i32, ptr %8, align 4
  %68 = call zeroext i1 @wtap_dump_can_write_format(i32 noundef %65, ptr noundef %66, i32 noundef %67)
  br i1 %68, label %69, label %71

69:                                               ; preds = %64
  %70 = load i32, ptr @pcapng_file_type_subtype, align 4
  store i32 %70, ptr %13, align 4
  br label %71

71:                                               ; preds = %69, %64
  br label %85

72:                                               ; preds = %60
  %73 = load i32, ptr %12, align 4
  %74 = load i32, ptr @pcapng_file_type_subtype, align 4
  %75 = icmp eq i32 %73, %74
  br i1 %75, label %76, label %84

76:                                               ; preds = %72
  %77 = load i32, ptr @pcap_file_type_subtype, align 4
  %78 = load ptr, ptr %7, align 8
  %79 = load i32, ptr %8, align 4
  %80 = call zeroext i1 @wtap_dump_can_write_format(i32 noundef %77, ptr noundef %78, i32 noundef %79)
  br i1 %80, label %81, label %83

81:                                               ; preds = %76
  %82 = load i32, ptr @pcap_file_type_subtype, align 4
  store i32 %82, ptr %13, align 4
  br label %83

83:                                               ; preds = %81, %76
  br label %84

84:                                               ; preds = %83, %72
  br label %85

85:                                               ; preds = %84, %71
  %86 = call ptr @g_array_new(i32 noundef 0, i32 noundef 0, i32 noundef 4)
  store ptr %86, ptr %10, align 8
  store i32 0, ptr %11, align 4
  br label %87

87:                                               ; preds = %111, %85
  %88 = load i32, ptr %11, align 4
  %89 = load ptr, ptr @file_type_subtype_table_arr, align 8
  %90 = getelementptr inbounds nuw %struct._GArray, ptr %89, i32 0, i32 1
  %91 = load i32, ptr %90, align 8
  %92 = icmp slt i32 %88, %91
  br i1 %92, label %93, label %114

93:                                               ; preds = %87
  %94 = load i32, ptr %11, align 4
  %95 = load i32, ptr %12, align 4
  %96 = icmp eq i32 %94, %95
  br i1 %96, label %101, label %97

97:                                               ; preds = %93
  %98 = load i32, ptr %11, align 4
  %99 = load i32, ptr %13, align 4
  %100 = icmp eq i32 %98, %99
  br i1 %100, label %101, label %102

101:                                              ; preds = %97, %93
  br label %111

102:                                              ; preds = %97
  %103 = load i32, ptr %11, align 4
  %104 = load ptr, ptr %7, align 8
  %105 = load i32, ptr %8, align 4
  %106 = call zeroext i1 @wtap_dump_can_write_format(i32 noundef %103, ptr noundef %104, i32 noundef %105)
  br i1 %106, label %107, label %110

107:                                              ; preds = %102
  %108 = load ptr, ptr %10, align 8
  %109 = call ptr @g_array_append_vals(ptr noundef %108, ptr noundef %11, i32 noundef 1)
  br label %110

110:                                              ; preds = %107, %102
  br label %111

111:                                              ; preds = %110, %101
  %112 = load i32, ptr %11, align 4
  %113 = add i32 %112, 1
  store i32 %113, ptr %11, align 4
  br label %87, !llvm.loop !25

114:                                              ; preds = %87
  %115 = load ptr, ptr %10, align 8
  %116 = load i32, ptr %9, align 4
  %117 = icmp eq i32 %116, 0
  %118 = select i1 %117, ptr @compare_file_type_subtypes_by_name, ptr @compare_file_type_subtypes_by_description
  call void @g_array_sort(ptr noundef %115, ptr noundef %118)
  %119 = load i32, ptr %13, align 4
  %120 = icmp ne i32 %119, -1
  br i1 %120, label %121, label %124

121:                                              ; preds = %114
  %122 = load ptr, ptr %10, align 8
  %123 = call ptr @g_array_prepend_vals(ptr noundef %122, ptr noundef %13, i32 noundef 1)
  br label %124

124:                                              ; preds = %121, %114
  %125 = load ptr, ptr %10, align 8
  %126 = call ptr @g_array_prepend_vals(ptr noundef %125, ptr noundef %12, i32 noundef 1)
  %127 = load ptr, ptr %10, align 8
  store ptr %127, ptr %5, align 8
  store i32 1, ptr %14, align 4
  br label %128

128:                                              ; preds = %124, %59
  call void @llvm.lifetime.end.p0(i64 4, ptr %13) #12
  call void @llvm.lifetime.end.p0(i64 4, ptr %12) #12
  call void @llvm.lifetime.end.p0(i64 4, ptr %11) #12
  call void @llvm.lifetime.end.p0(i64 8, ptr %10) #12
  %129 = load ptr, ptr %5, align 8
  ret ptr %129
}