; Function Attrs: null_pointer_is_valid sspstrong uwtable
define ptr @wtap_get_savable_file_types_subtypes_for_file(i32 noundef %0, ptr noundef readonly captures(none) %1, i32 noundef %2, i32 noundef %3) local_unnamed_addr #0 {
  %5 = alloca i32, align 4
  %6 = alloca i32, align 4
  %7 = alloca i32, align 4
  call void @llvm.lifetime.start.p0(i64 4, ptr nonnull %5) #24
  call void @llvm.lifetime.start.p0(i64 4, ptr nonnull %6) #24
  call void @llvm.lifetime.start.p0(i64 4, ptr nonnull %7) #24
  store i32 -1, ptr %7, align 4
  %8 = tail call fastcc zeroext i1 @wtap_dump_can_write_format(i32 noundef %0, ptr noundef %1, i32 noundef %2)
  br i1 %8, label %31, label %9

9:                                                ; preds = %4
  %10 = load i32, ptr @pcap_file_type_subtype, align 4
  %11 = tail call fastcc zeroext i1 @wtap_dump_can_write_format(i32 noundef %10, ptr noundef %1, i32 noundef %2)
  br i1 %11, label %12, label %14

12:                                               ; preds = %9
  %13 = load i32, ptr @pcap_file_type_subtype, align 4
  br label %31

14:                                               ; preds = %9
  %15 = load i32, ptr @pcapng_file_type_subtype, align 4
  %16 = tail call fastcc zeroext i1 @wtap_dump_can_write_format(i32 noundef %15, ptr noundef %1, i32 noundef %2)
  br i1 %16, label %17, label %19

17:                                               ; preds = %14
  %18 = load i32, ptr @pcapng_file_type_subtype, align 4
  br label %31

19:                                               ; preds = %14
  %20 = load ptr, ptr @file_type_subtype_table_arr, align 8
  %21 = getelementptr inbounds nuw i8, ptr %20, i64 8
  %22 = load i32, ptr %21, align 8
  %23 = icmp sgt i32 %22, 0
  br i1 %23, label %.lr.ph, label %.thread

.lr.ph:                                           ; preds = %19, %25
  %storemerge29 = phi i32 [ %26, %25 ], [ 0, %19 ]
  %24 = tail call fastcc zeroext i1 @wtap_dump_can_write_format(i32 noundef %storemerge29, ptr noundef %1, i32 noundef %2)
  br i1 %24, label %.thread33, label %25

.thread33:                                        ; preds = %.lr.ph
  store i32 %storemerge29, ptr %6, align 4
  br label %33

25:                                               ; preds = %.lr.ph
  %26 = add nuw nsw i32 %storemerge29, 1
  %27 = load ptr, ptr @file_type_subtype_table_arr, align 8
  %28 = getelementptr inbounds nuw i8, ptr %27, i64 8
  %29 = load i32, ptr %28, align 8
  %30 = icmp slt i32 %26, %29
  br i1 %30, label %.lr.ph, label %.thread, !llvm.loop !29

31:                                               ; preds = %4, %12, %17
  %.sink = phi i32 [ %13, %12 ], [ %18, %17 ], [ %0, %4 ]
  store i32 %.sink, ptr %6, align 4
  %32 = icmp eq i32 %.sink, -1
  br i1 %32, label %.thread, label %33

33:                                               ; preds = %.thread33, %31
  %34 = phi i32 [ %storemerge29, %.thread33 ], [ %.sink, %31 ]
  %35 = load i32, ptr @pcap_file_type_subtype, align 4
  %36 = icmp eq i32 %34, %35
  %37 = load i32, ptr @pcapng_file_type_subtype, align 4
  br i1 %36, label %38, label %40

38:                                               ; preds = %33
  %39 = tail call fastcc zeroext i1 @wtap_dump_can_write_format(i32 noundef %37, ptr noundef %1, i32 noundef %2)
  br i1 %39, label %.sink.split, label %45

40:                                               ; preds = %33
  %41 = icmp eq i32 %34, %37
  br i1 %41, label %42, label %45

42:                                               ; preds = %40
  %43 = tail call fastcc zeroext i1 @wtap_dump_can_write_format(i32 noundef %35, ptr noundef %1, i32 noundef %2)
  br i1 %43, label %.sink.split, label %45

.sink.split:                                      ; preds = %42, %38
  %pcap_file_type_subtype.sink = phi ptr [ @pcapng_file_type_subtype, %38 ], [ @pcap_file_type_subtype, %42 ]
  %44 = load i32, ptr %pcap_file_type_subtype.sink, align 4
  store i32 %44, ptr %7, align 4
  br label %45

45:                                               ; preds = %.sink.split, %40, %42, %38
  %46 = phi i32 [ -1, %40 ], [ -1, %42 ], [ -1, %38 ], [ %44, %.sink.split ]
  %47 = tail call ptr @g_array_new(i32 noundef 0, i32 noundef 0, i32 noundef 4)
  store i32 0, ptr %5, align 4
  %48 = load ptr, ptr @file_type_subtype_table_arr, align 8
  %49 = getelementptr inbounds nuw i8, ptr %48, i64 8
  %50 = load i32, ptr %49, align 8
  %51 = icmp sgt i32 %50, 0
  br i1 %51, label %.lr.ph31, label %._crit_edge

.lr.ph31:                                         ; preds = %45, %58
  %storemerge2630 = phi i32 [ %60, %58 ], [ 0, %45 ]
  %52 = icmp eq i32 %storemerge2630, %34
  %53 = icmp eq i32 %storemerge2630, %46
  %or.cond = select i1 %52, i1 true, i1 %53
  br i1 %or.cond, label %58, label %54

54:                                               ; preds = %.lr.ph31
  %55 = call fastcc zeroext i1 @wtap_dump_can_write_format(i32 noundef %storemerge2630, ptr noundef %1, i32 noundef %2)
  br i1 %55, label %56, label %58

56:                                               ; preds = %54
  %57 = call ptr @g_array_append_vals(ptr noundef %47, ptr noundef nonnull %5, i32 noundef 1)
  br label %58

58:                                               ; preds = %54, %56, %.lr.ph31
  %59 = load i32, ptr %5, align 4
  %60 = add i32 %59, 1
  store i32 %60, ptr %5, align 4
  %61 = load ptr, ptr @file_type_subtype_table_arr, align 8
  %62 = getelementptr inbounds nuw i8, ptr %61, i64 8
  %63 = load i32, ptr %62, align 8
  %64 = icmp slt i32 %60, %63
  br i1 %64, label %.lr.ph31, label %._crit_edge, !llvm.loop !30

._crit_edge:                                      ; preds = %58, %45
  %65 = icmp eq i32 %3, 0
  %66 = select i1 %65, ptr @compare_file_type_subtypes_by_name, ptr @compare_file_type_subtypes_by_description
  call void @g_array_sort(ptr noundef %47, ptr noundef nonnull %66)
  %.not = icmp eq i32 %46, -1
  br i1 %.not, label %69, label %67

67:                                               ; preds = %._crit_edge
  %68 = call ptr @g_array_prepend_vals(ptr noundef %47, ptr noundef nonnull %7, i32 noundef 1)
  br label %69

69:                                               ; preds = %67, %._crit_edge
  %70 = call ptr @g_array_prepend_vals(ptr noundef %47, ptr noundef nonnull %6, i32 noundef 1)
  br label %.thread

.thread:                                          ; preds = %25, %19, %31, %69
  %.0 = phi ptr [ %47, %69 ], [ null, %31 ], [ null, %19 ], [ null, %25 ]
  call void @llvm.lifetime.end.p0(i64 4, ptr nonnull %7) #24
  call void @llvm.lifetime.end.p0(i64 4, ptr nonnull %6) #24
  call void @llvm.lifetime.end.p0(i64 4, ptr nonnull %5) #24
  ret ptr %.0
}